; Function Attrs: nounwind uwtable
define ptr @Cudd_bddSwapVariables(ptr noundef %0, ptr noundef %1, ptr noundef readonly captures(none) %2, ptr noundef readonly captures(none) %3, i32 noundef %4) local_unnamed_addr #0 {
  %6 = getelementptr inbounds nuw i8, ptr %0, i64 136
  %7 = load i32, ptr %6, align 8, !tbaa !3
  %8 = sext i32 %7 to i64
  %9 = shl nsw i64 %8, 2
  %10 = tail call noalias ptr @malloc(i64 noundef %9) #8
  %11 = icmp eq ptr %10, null
  br i1 %11, label %13, label %.preheader30

.preheader30:                                     ; preds = %5
  %12 = icmp sgt i32 %7, 0
  br i1 %12, label %.lr.ph.preheader, label %.preheader

.lr.ph.preheader:                                 ; preds = %.preheader30
  %wide.trip.count = zext nneg i32 %7 to i64
  br label %.lr.ph

13:                                               ; preds = %5
  %14 = getelementptr inbounds nuw i8, ptr %0, i64 624
  store i32 1, ptr %14, align 8, !tbaa !38
  br label %29

.preheader:                                       ; preds = %.lr.ph, %.preheader30
  %15 = icmp sgt i32 %4, 0
  br i1 %15, label %.lr.ph33.preheader, label %._crit_edge

.lr.ph33.preheader:                               ; preds = %.preheader
  %wide.trip.count38 = zext nneg i32 %4 to i64
  br label %.lr.ph33

.lr.ph:                                           ; preds = %.lr.ph.preheader, %.lr.ph
  %indvars.iv = phi i64 [ 0, %.lr.ph.preheader ], [ %indvars.iv.next, %.lr.ph ]
  %16 = getelementptr inbounds nuw i32, ptr %10, i64 %indvars.iv
  %17 = trunc nuw nsw i64 %indvars.iv to i32
  store i32 %17, ptr %16, align 4, !tbaa !31
  %indvars.iv.next = add nuw nsw i64 %indvars.iv, 1
  %exitcond.not = icmp eq i64 %indvars.iv.next, %wide.trip.count
  br i1 %exitcond.not, label %.preheader, label %.lr.ph, !llvm.loop !52

.lr.ph33:                                         ; preds = %.lr.ph33.preheader, %.lr.ph33
  %indvars.iv35 = phi i64 [ 0, %.lr.ph33.preheader ], [ %indvars.iv.next36, %.lr.ph33 ]
  %18 = getelementptr inbounds nuw ptr, ptr %2, i64 %indvars.iv35
  %19 = load ptr, ptr %18, align 8, !tbaa !25
  %20 = load i32, ptr %19, align 8, !tbaa !30
  %21 = getelementptr inbounds nuw ptr, ptr %3, i64 %indvars.iv35
  %22 = load ptr, ptr %21, align 8, !tbaa !25
  %23 = load i32, ptr %22, align 8, !tbaa !30
  %24 = sext i32 %20 to i64
  %25 = getelementptr inbounds i32, ptr %10, i64 %24
  store i32 %23, ptr %25, align 4, !tbaa !31
  %26 = sext i32 %23 to i64
  %27 = getelementptr inbounds i32, ptr %10, i64 %26
  store i32 %20, ptr %27, align 4, !tbaa !31
  %indvars.iv.next36 = add nuw nsw i64 %indvars.iv35, 1
  %exitcond39.not = icmp eq i64 %indvars.iv.next36, %wide.trip.count38
  br i1 %exitcond39.not, label %._crit_edge, label %.lr.ph33, !llvm.loop !53

._crit_edge:                                      ; preds = %.lr.ph33, %.preheader
  %28 = tail call ptr @Cudd_bddPermute(ptr noundef %0, ptr noundef %1, ptr noundef nonnull %10)
  tail call void @free(ptr noundef nonnull %10) #7
  br label %29

29:                                               ; preds = %._crit_edge, %13
  %.0 = phi ptr [ null, %13 ], [ %28, %._crit_edge ]
  ret ptr %.0
}